target datalayout = "e-m:e-p270:32:32-p271:32:32-p272:64:64-i64:64-i128:128-f80:128-n8:16:32:64-S128"
target triple = "x86_64-pc-linux-gnu"

%struct._zend_array = type { %struct._zend_refcounted_h, %union.anon.0, i32, %union.anon.1, i32, i32, i32, i32, i64, ptr }
%struct._zend_refcounted_h = type { i32, %union.anon }
%union.anon = type { i32 }
%union.anon.0 = type { i32 }
%union.anon.1 = type { ptr }
%struct._zend_executor_globals = type { %struct._zval_struct, %struct._zval_struct, [32 x ptr], ptr, ptr, %struct._zend_array, %struct._zend_array, ptr, i32, i32, ptr, ptr, ptr, ptr, ptr, ptr, i64, ptr, ptr, i32, i32, i64, i32, i32, i32, i8, i8, %struct.zend_atomic_bool_s, %struct.zend_atomic_bool_s, ptr, i64, ptr, ptr, %struct._zend_array, %struct._zend_array, i32, i8, %struct._zval_struct, %struct._zval_struct, %struct._zend_stack, %struct._zend_stack, %struct._zend_stack, ptr, i32, i32, i64, ptr, ptr, ptr, %struct._zend_objects_store, ptr, ptr, ptr, [3 x %struct._zend_op], ptr, i8, i8, i64, i32, i32, ptr, [16 x %struct._HashTableIterator], ptr, %union._zend_function, %struct._zend_op, %struct._zend_array, i64, %struct.zend_get_gc_buffer, ptr, ptr, ptr, i64, i8, i32, ptr, ptr, i64, %struct._zend_call_stack, i64, i64, [6 x ptr] }
%struct.zend_atomic_bool_s = type { i8 }
%struct._zval_struct = type { %union._zend_value, %union.anon.3, %union.anon.6 }
%union._zend_value = type { i64 }
%union.anon.3 = type { i32 }
%union.anon.6 = type { i32 }
%struct._zend_stack = type { i32, i32, i32, ptr }
%struct._zend_objects_store = type { ptr, i32, i32, i32 }
%struct._HashTableIterator = type { ptr, i32, i32 }
%union._zend_function = type { %struct._zend_op_array }
%struct._zend_op_array = type { i8, [3 x i8], i32, ptr, ptr, ptr, i32, i32, ptr, ptr, ptr, ptr, i32, i32, i32, i32, ptr, ptr, ptr, ptr, ptr, i32, i32, ptr, ptr, ptr, i32, i32, i32, i32, ptr, ptr, [6 x ptr] }
%struct._zend_op = type { ptr, %union._znode_op, %union._znode_op, %union._znode_op, i32, i32, i8, i8, i8, i8 }
%union._znode_op = type { i32 }
%struct.zend_get_gc_buffer = type { ptr, ptr, ptr }
%struct._zend_call_stack = type { ptr, i64 }
%struct._Bucket = type { %struct._zval_struct, i64, ptr }
%struct.anon = type { i8, i8, i8, i8 }

@executor_globals = external global %struct._zend_executor_globals, align 8

; Function Attrs: nounwind uwtable
define void @zend_hash_del_bucket(ptr noundef %0, ptr noundef %1) #0 {
  %3 = alloca ptr, align 8
  %4 = alloca i32, align 4
  %5 = alloca ptr, align 8
  %6 = alloca ptr, align 8
  %7 = alloca ptr, align 8
  %8 = alloca ptr, align 8
  %9 = alloca ptr, align 8
  %10 = alloca i32, align 4
  %11 = alloca ptr, align 8
  %12 = alloca ptr, align 8
  %13 = alloca %struct._zval_struct, align 8
  %14 = alloca ptr, align 8
  %15 = alloca ptr, align 8
  %16 = alloca ptr, align 8
  %17 = alloca i32, align 4
  %18 = alloca i32, align 4
  %19 = alloca i32, align 4
  %20 = alloca ptr, align 8
  %21 = alloca ptr, align 8
  %22 = alloca i32, align 4
  %23 = alloca ptr, align 8
  %24 = alloca ptr, align 8
  %25 = alloca i32, align 4
  %26 = alloca i32, align 4
  %27 = alloca ptr, align 8
  %28 = alloca ptr, align 8
  store ptr %0, ptr %27, align 8
  store ptr %1, ptr %28, align 8
  %29 = load ptr, ptr %27, align 8
  %30 = getelementptr inbounds %struct._zend_array, ptr %29, i32 0, i32 1
  %31 = load i32, ptr %30, align 8
  %32 = and i32 %31, 4
  %33 = icmp ne i32 %32, 0
  %34 = xor i1 %33, true
  call void @llvm.assume(i1 %34)
  %35 = load ptr, ptr %27, align 8
  %36 = load ptr, ptr %28, align 8
  %37 = load ptr, ptr %27, align 8
  %38 = getelementptr inbounds %struct._zend_array, ptr %37, i32 0, i32 3
  %39 = load ptr, ptr %38, align 8
  %40 = ptrtoint ptr %36 to i64
  %41 = ptrtoint ptr %39 to i64
  %42 = sub i64 %40, %41
  %43 = sdiv exact i64 %42, 32
  %44 = trunc i64 %43 to i32
  %45 = load ptr, ptr %28, align 8
  store ptr %35, ptr %21, align 8
  store i32 %44, ptr %22, align 4
  store ptr %45, ptr %23, align 8
  store ptr null, ptr %24, align 8
  %46 = load ptr, ptr %23, align 8
  %47 = getelementptr inbounds %struct._Bucket, ptr %46, i32 0, i32 1
  %48 = load i64, ptr %47, align 8
  %49 = load ptr, ptr %21, align 8
  %50 = getelementptr inbounds %struct._zend_array, ptr %49, i32 0, i32 2
  %51 = load i32, ptr %50, align 4
  %52 = zext i32 %51 to i64
  %53 = or i64 %48, %52
  %54 = trunc i64 %53 to i32
  store i32 %54, ptr %25, align 4
  %55 = load ptr, ptr %21, align 8
  %56 = getelementptr inbounds %struct._zend_array, ptr %55, i32 0, i32 3
  %57 = load ptr, ptr %56, align 8
  %58 = load i32, ptr %25, align 4
  %59 = sext i32 %58 to i64
  %60 = getelementptr inbounds i32, ptr %57, i64 %59
  %61 = load i32, ptr %60, align 4
  store i32 %61, ptr %26, align 4
  %62 = load i32, ptr %26, align 4
  %63 = load i32, ptr %22, align 4
  %64 = icmp ne i32 %62, %63
  br i1 %64, label %65, label %89

65:                                               ; preds = %2
  %66 = load ptr, ptr %21, align 8
  %67 = getelementptr inbounds %struct._zend_array, ptr %66, i32 0, i32 3
  %68 = load ptr, ptr %67, align 8
  %69 = load i32, ptr %26, align 4
  %70 = zext i32 %69 to i64
  %71 = getelementptr inbounds %struct._Bucket, ptr %68, i64 %70
  store ptr %71, ptr %24, align 8
  br label %72

72:                                               ; preds = %78, %65
  %73 = load ptr, ptr %24, align 8
  %74 = getelementptr inbounds %struct._zval_struct, ptr %73, i32 0, i32 2
  %75 = load i32, ptr %74, align 4
  %76 = load i32, ptr %22, align 4
  %77 = icmp ne i32 %75, %76
  br i1 %77, label %78, label %88

78:                                               ; preds = %72
  %79 = load ptr, ptr %24, align 8
  %80 = getelementptr inbounds %struct._zval_struct, ptr %79, i32 0, i32 2
  %81 = load i32, ptr %80, align 4
  store i32 %81, ptr %26, align 4
  %82 = load ptr, ptr %21, align 8
  %83 = getelementptr inbounds %struct._zend_array, ptr %82, i32 0, i32 3
  %84 = load ptr, ptr %83, align 8
  %85 = load i32, ptr %26, align 4
  %86 = zext i32 %85 to i64
  %87 = getelementptr inbounds %struct._Bucket, ptr %84, i64 %86
  store ptr %87, ptr %24, align 8
  br label %72

88:                                               ; preds = %72
  br label %89

89:                                               ; preds = %88, %2
  %90 = load ptr, ptr %23, align 8
  %91 = getelementptr inbounds %struct._Bucket, ptr %90, i32 0, i32 2
  %92 = load ptr, ptr %91, align 8
  %93 = icmp ne ptr %92, null
  br i1 %93, label %94, label %131

94:                                               ; preds = %89
  %95 = load ptr, ptr %23, align 8
  %96 = getelementptr inbounds %struct._Bucket, ptr %95, i32 0, i32 2
  %97 = load ptr, ptr %96, align 8
  store ptr %97, ptr %20, align 8
  %98 = load ptr, ptr %20, align 8
  %99 = getelementptr inbounds %struct._zend_refcounted_h, ptr %98, i32 0, i32 1
  %100 = load i32, ptr %99, align 4
  store i32 %100, ptr %18, align 4
  %101 = load i32, ptr %18, align 4
  %102 = and i32 %101, 1008
  %103 = and i32 %102, 64
  %104 = icmp ne i32 %103, 0
  br i1 %104, label %128, label %105

105:                                              ; preds = %94
  %106 = load ptr, ptr %20, align 8
  store ptr %106, ptr %7, align 8
  %107 = load ptr, ptr %7, align 8
  %108 = load i32, ptr %107, align 4
  %109 = icmp ugt i32 %108, 0
  call void @llvm.assume(i1 %109)
  %110 = load ptr, ptr %7, align 8
  %111 = load i32, ptr %110, align 4
  %112 = add i32 %111, -1
  store i32 %112, ptr %110, align 4
  %113 = icmp eq i32 %112, 0
  br i1 %113, label %114, label %127

114:                                              ; preds = %105
  %115 = load ptr, ptr %20, align 8
  %116 = getelementptr inbounds %struct._zend_refcounted_h, ptr %115, i32 0, i32 1
  %117 = load i32, ptr %116, align 4
  store i32 %117, ptr %19, align 4
  %118 = load i32, ptr %19, align 4
  %119 = and i32 %118, 1008
  %120 = and i32 %119, 128
  %121 = icmp ne i32 %120, 0
  br i1 %121, label %122, label %124

122:                                              ; preds = %114
  %123 = load ptr, ptr %20, align 8
  call void @free(ptr noundef %123) #15
  br label %126

124:                                              ; preds = %114
  %125 = load ptr, ptr %20, align 8
  call void @_efree(ptr noundef %125) #15
  br label %126

126:                                              ; preds = %124, %122
  br label %127

127:                                              ; preds = %126, %105
  br label %128

128:                                              ; preds = %127, %94
  %129 = load ptr, ptr %23, align 8
  %130 = getelementptr inbounds %struct._Bucket, ptr %129, i32 0, i32 2
  store ptr null, ptr %130, align 8
  br label %131

131:                                              ; preds = %128, %89
  %132 = load ptr, ptr %21, align 8
  %133 = load i32, ptr %22, align 4
  %134 = load ptr, ptr %23, align 8
  %135 = load ptr, ptr %24, align 8
  store ptr %132, ptr %9, align 8
  store i32 %133, ptr %10, align 4
  store ptr %134, ptr %11, align 8
  store ptr %135, ptr %12, align 8
  %136 = load ptr, ptr %12, align 8
  %137 = icmp ne ptr %136, null
  br i1 %137, label %138, label %144

138:                                              ; preds = %131
  %139 = load ptr, ptr %11, align 8
  %140 = getelementptr inbounds %struct._zval_struct, ptr %139, i32 0, i32 2
  %141 = load i32, ptr %140, align 4
  %142 = load ptr, ptr %12, align 8
  %143 = getelementptr inbounds %struct._zval_struct, ptr %142, i32 0, i32 2
  store i32 %141, ptr %143, align 4
  br label %162

144:                                              ; preds = %131
  %145 = load ptr, ptr %11, align 8
  %146 = getelementptr inbounds %struct._zval_struct, ptr %145, i32 0, i32 2
  %147 = load i32, ptr %146, align 4
  %148 = load ptr, ptr %9, align 8
  %149 = getelementptr inbounds %struct._zend_array, ptr %148, i32 0, i32 3
  %150 = load ptr, ptr %149, align 8
  %151 = load ptr, ptr %11, align 8
  %152 = getelementptr inbounds %struct._Bucket, ptr %151, i32 0, i32 1
  %153 = load i64, ptr %152, align 8
  %154 = load ptr, ptr %9, align 8
  %155 = getelementptr inbounds %struct._zend_array, ptr %154, i32 0, i32 2
  %156 = load i32, ptr %155, align 4
  %157 = zext i32 %156 to i64
  %158 = or i64 %153, %157
  %159 = trunc i64 %158 to i32
  %160 = sext i32 %159 to i64
  %161 = getelementptr inbounds i32, ptr %150, i64 %160
  store i32 %147, ptr %161, align 4
  br label %162

162:                                              ; preds = %144, %138
  %163 = load i32, ptr %10, align 4
  store i32 %163, ptr %10, align 4
  %164 = load ptr, ptr %9, align 8
  %165 = getelementptr inbounds %struct._zend_array, ptr %164, i32 0, i32 5
  %166 = load i32, ptr %165, align 4
  %167 = add i32 %166, -1
  store i32 %167, ptr %165, align 4
  %168 = load ptr, ptr %9, align 8
  %169 = getelementptr inbounds %struct._zend_array, ptr %168, i32 0, i32 4
  %170 = load i32, ptr %169, align 8
  %171 = sub i32 %170, 1
  %172 = load i32, ptr %10, align 4
  %173 = icmp eq i32 %171, %172
  br i1 %173, label %174, label %267

174:                                              ; preds = %162
  br label %175

175:                                              ; preds = %199, %174
  %176 = load ptr, ptr %9, align 8
  %177 = getelementptr inbounds %struct._zend_array, ptr %176, i32 0, i32 4
  %178 = load i32, ptr %177, align 8
  %179 = add i32 %178, -1
  store i32 %179, ptr %177, align 8
  %180 = load ptr, ptr %9, align 8
  %181 = getelementptr inbounds %struct._zend_array, ptr %180, i32 0, i32 4
  %182 = load i32, ptr %181, align 8
  %183 = icmp ugt i32 %182, 0
  br i1 %183, label %184, label %199

184:                                              ; preds = %175
  %185 = load ptr, ptr %9, align 8
  %186 = getelementptr inbounds %struct._zend_array, ptr %185, i32 0, i32 3
  %187 = load ptr, ptr %186, align 8
  %188 = load ptr, ptr %9, align 8
  %189 = getelementptr inbounds %struct._zend_array, ptr %188, i32 0, i32 4
  %190 = load i32, ptr %189, align 8
  %191 = sub i32 %190, 1
  %192 = zext i32 %191 to i64
  %193 = getelementptr inbounds %struct._Bucket, ptr %187, i64 %192
  store ptr %193, ptr %8, align 8
  %194 = load ptr, ptr %8, align 8
  %195 = getelementptr inbounds %struct._zval_struct, ptr %194, i32 0, i32 1
  %196 = load i8, ptr %195, align 8
  %197 = zext i8 %196 to i32
  %198 = icmp eq i32 %197, 0
  br label %199

199:                                              ; preds = %184, %175
  %200 = phi i1 [ false, %175 ], [ %198, %184 ]
  br i1 %200, label %175, label %201

201:                                              ; preds = %199
  %202 = load ptr, ptr %9, align 8
  %203 = getelementptr inbounds %struct._zend_array, ptr %202, i32 0, i32 7
  %204 = load i32, ptr %203, align 4
  %205 = load ptr, ptr %9, align 8
  %206 = getelementptr inbounds %struct._zend_array, ptr %205, i32 0, i32 4
  %207 = load i32, ptr %206, align 8
  %208 = icmp ult i32 %204, %207
  br i1 %208, label %209, label %213

209:                                              ; preds = %201
  %210 = load ptr, ptr %9, align 8
  %211 = getelementptr inbounds %struct._zend_array, ptr %210, i32 0, i32 7
  %212 = load i32, ptr %211, align 4
  br label %217

213:                                              ; preds = %201
  %214 = load ptr, ptr %9, align 8
  %215 = getelementptr inbounds %struct._zend_array, ptr %214, i32 0, i32 4
  %216 = load i32, ptr %215, align 8
  br label %217

217:                                              ; preds = %213, %209
  %218 = phi i32 [ %212, %209 ], [ %216, %213 ]
  %219 = load ptr, ptr %9, align 8
  %220 = getelementptr inbounds %struct._zend_array, ptr %219, i32 0, i32 7
  store i32 %218, ptr %220, align 4
  %221 = load ptr, ptr %9, align 8
  %222 = load ptr, ptr %9, align 8
  %223 = getelementptr inbounds %struct._zend_array, ptr %222, i32 0, i32 4
  %224 = load i32, ptr %223, align 8
  store ptr %221, ptr %3, align 8
  store i32 %224, ptr %4, align 4
  %225 = load ptr, ptr %3, align 8
  %226 = getelementptr inbounds %struct._zend_array, ptr %225, i32 0, i32 1
  %227 = getelementptr inbounds %struct.anon, ptr %226, i32 0, i32 2
  %228 = load i8, ptr %227, align 2
  %229 = zext i8 %228 to i32
  %230 = icmp ne i32 %229, 0
  br i1 %230, label %231, label %266

231:                                              ; preds = %217
  %232 = load ptr, ptr getelementptr inbounds (%struct._zend_executor_globals, ptr @executor_globals, i32 0, i32 60), align 8
  store ptr %232, ptr %5, align 8
  %233 = load ptr, ptr %5, align 8
  %234 = load i32, ptr getelementptr inbounds (%struct._zend_executor_globals, ptr @executor_globals, i32 0, i32 59), align 4
  %235 = zext i32 %234 to i64
  %236 = getelementptr inbounds %struct._HashTableIterator, ptr %233, i64 %235
  store ptr %236, ptr %6, align 8
  br label %237

237:                                              ; preds = %262, %231
  %238 = load ptr, ptr %5, align 8
  %239 = load ptr, ptr %6, align 8
  %240 = icmp ne ptr %238, %239
  br i1 %240, label %241, label %265

241:                                              ; preds = %237
  %242 = load ptr, ptr %5, align 8
  %243 = load ptr, ptr %242, align 8
  %244 = load ptr, ptr %3, align 8
  %245 = icmp eq ptr %243, %244
  br i1 %245, label %246, label %262

246:                                              ; preds = %241
  %247 = load ptr, ptr %5, align 8
  %248 = getelementptr inbounds %struct._HashTableIterator, ptr %247, i32 0, i32 1
  %249 = load i32, ptr %248, align 8
  %250 = load i32, ptr %4, align 4
  %251 = icmp ult i32 %249, %250
  br i1 %251, label %252, label %256

252:                                              ; preds = %246
  %253 = load ptr, ptr %5, align 8
  %254 = getelementptr inbounds %struct._HashTableIterator, ptr %253, i32 0, i32 1
  %255 = load i32, ptr %254, align 8
  br label %258

256:                                              ; preds = %246
  %257 = load i32, ptr %4, align 4
  br label %258

258:                                              ; preds = %256, %252
  %259 = phi i32 [ %255, %252 ], [ %257, %256 ]
  %260 = load ptr, ptr %5, align 8
  %261 = getelementptr inbounds %struct._HashTableIterator, ptr %260, i32 0, i32 1
  store i32 %259, ptr %261, align 8
  br label %262

262:                                              ; preds = %258, %241
  %263 = load ptr, ptr %5, align 8
  %264 = getelementptr inbounds %struct._HashTableIterator, ptr %263, i32 1
  store ptr %264, ptr %5, align 8
  br label %237

265:                                              ; preds = %237
  br label %266

266:                                              ; preds = %265, %217
  br label %267

267:                                              ; preds = %266, %162
  %268 = load ptr, ptr %9, align 8
  %269 = getelementptr inbounds %struct._zend_array, ptr %268, i32 0, i32 9
  %270 = load ptr, ptr %269, align 8
  %271 = icmp ne ptr %270, null
  br i1 %271, label %272, label %289

272:                                              ; preds = %267
  store ptr %13, ptr %14, align 8
  %273 = load ptr, ptr %11, align 8
  store ptr %273, ptr %15, align 8
  %274 = load ptr, ptr %15, align 8
  %275 = load ptr, ptr %274, align 8
  store ptr %275, ptr %16, align 8
  %276 = load ptr, ptr %15, align 8
  %277 = getelementptr inbounds %struct._zval_struct, ptr %276, i32 0, i32 1
  %278 = load i32, ptr %277, align 8
  store i32 %278, ptr %17, align 4
  %279 = load ptr, ptr %16, align 8
  %280 = load ptr, ptr %14, align 8
  store ptr %279, ptr %280, align 8
  %281 = load i32, ptr %17, align 4
  %282 = load ptr, ptr %14, align 8
  %283 = getelementptr inbounds %struct._zval_struct, ptr %282, i32 0, i32 1
  store i32 %281, ptr %283, align 8
  %284 = load ptr, ptr %11, align 8
  %285 = getelementptr inbounds %struct._zval_struct, ptr %284, i32 0, i32 1
  store i32 0, ptr %285, align 8
  %286 = load ptr, ptr %9, align 8
  %287 = getelementptr inbounds %struct._zend_array, ptr %286, i32 0, i32 9
  %288 = load ptr, ptr %287, align 8
  call void %288(ptr noundef %13) #15
  br label %292

289:                                              ; preds = %267
  %290 = load ptr, ptr %11, align 8
  %291 = getelementptr inbounds %struct._zval_struct, ptr %290, i32 0, i32 1
  store i32 0, ptr %291, align 8
  br label %292

292:                                              ; preds = %289, %272
  ret void
}