; Function Attrs: nounwind uwtable
define void @zend_hash_del_bucket(ptr noundef %0, ptr noundef %1) local_unnamed_addr #0 {
  %3 = alloca %struct._zval_struct, align 8
  %4 = getelementptr inbounds i8, ptr %0, i64 8
  %5 = load i32, ptr %4, align 8
  %6 = and i32 %5, 4
  %.not = icmp eq i32 %6, 0
  tail call void @llvm.assume(i1 %.not)
  %7 = getelementptr inbounds i8, ptr %0, i64 16
  %8 = load ptr, ptr %7, align 8
  %9 = ptrtoint ptr %1 to i64
  %10 = ptrtoint ptr %8 to i64
  %11 = sub i64 %9, %10
  %12 = lshr exact i64 %11, 5
  %13 = trunc i64 %12 to i32
  %14 = getelementptr inbounds i8, ptr %1, i64 16
  %15 = load i64, ptr %14, align 8
  %16 = getelementptr inbounds i8, ptr %0, i64 12
  %17 = load i32, ptr %16, align 4
  %18 = trunc i64 %15 to i32
  %19 = or i32 %17, %18
  %20 = sext i32 %19 to i64
  %21 = getelementptr inbounds i32, ptr %8, i64 %20
  %22 = load i32, ptr %21, align 4
  %.not89 = icmp eq i32 %22, %13
  br i1 %.not89, label %.loopexit101, label %.preheader100

.preheader100:                                    ; preds = %2, %.preheader100
  %.pn.in = phi i32 [ %24, %.preheader100 ], [ %22, %2 ]
  %.pn = zext i32 %.pn.in to i64
  %.079 = getelementptr inbounds %struct._Bucket, ptr %8, i64 %.pn
  %23 = getelementptr inbounds i8, ptr %.079, i64 12
  %24 = load i32, ptr %23, align 4
  %.not90 = icmp eq i32 %24, %13
  br i1 %.not90, label %.loopexit101, label %.preheader100

.loopexit101:                                     ; preds = %.preheader100, %2
  %.1 = phi ptr [ null, %2 ], [ %.079, %.preheader100 ]
  %25 = getelementptr inbounds i8, ptr %1, i64 24
  %26 = load ptr, ptr %25, align 8
  %.not91 = icmp eq ptr %26, null
  br i1 %.not91, label %41, label %27

27:                                               ; preds = %.loopexit101
  %28 = getelementptr inbounds i8, ptr %26, i64 4
  %29 = load i32, ptr %28, align 4
  %30 = and i32 %29, 64
  %.not92 = icmp eq i32 %30, 0
  br i1 %.not92, label %31, label %40

31:                                               ; preds = %27
  %32 = load i32, ptr %26, align 4
  %33 = icmp ne i32 %32, 0
  tail call void @llvm.assume(i1 %33)
  %34 = add i32 %32, -1
  store i32 %34, ptr %26, align 4
  %35 = icmp eq i32 %34, 0
  br i1 %35, label %36, label %40

36:                                               ; preds = %31
  %37 = and i32 %29, 128
  %.not93 = icmp eq i32 %37, 0
  br i1 %.not93, label %39, label %38

38:                                               ; preds = %36
  tail call void @free(ptr noundef nonnull %26) #27
  br label %40

39:                                               ; preds = %36
  tail call void @_efree(ptr noundef nonnull %26) #27
  br label %40

40:                                               ; preds = %31, %39, %38, %27
  store ptr null, ptr %25, align 8
  br label %41

41:                                               ; preds = %40, %.loopexit101
  %.not94 = icmp eq ptr %.1, null
  %42 = getelementptr inbounds i8, ptr %1, i64 12
  %43 = load i32, ptr %42, align 4
  br i1 %.not94, label %46, label %44

44:                                               ; preds = %41
  %45 = getelementptr inbounds i8, ptr %.1, i64 12
  br label %54

46:                                               ; preds = %41
  %47 = load ptr, ptr %7, align 8
  %48 = load i64, ptr %14, align 8
  %49 = load i32, ptr %16, align 4
  %50 = trunc i64 %48 to i32
  %51 = or i32 %49, %50
  %52 = sext i32 %51 to i64
  %53 = getelementptr inbounds i32, ptr %47, i64 %52
  br label %54

54:                                               ; preds = %46, %44
  %.sink = phi ptr [ %53, %46 ], [ %45, %44 ]
  store i32 %43, ptr %.sink, align 4
  %55 = getelementptr inbounds i8, ptr %0, i64 28
  %56 = load i32, ptr %55, align 4
  %57 = add i32 %56, -1
  store i32 %57, ptr %55, align 4
  %58 = getelementptr inbounds i8, ptr %0, i64 24
  %59 = load i32, ptr %58, align 8
  %60 = add i32 %59, -1
  %61 = icmp eq i32 %60, %13
  br i1 %61, label %.preheader, label %.loopexit

.preheader:                                       ; preds = %54, %64
  %62 = phi i32 [ %63, %64 ], [ %59, %54 ]
  %63 = add i32 %62, -1
  store i32 %63, ptr %58, align 8
  %.not95 = icmp eq i32 %63, 0
  br i1 %.not95, label %.critedge, label %64

64:                                               ; preds = %.preheader
  %65 = load ptr, ptr %7, align 8
  %66 = add i32 %62, -2
  %67 = zext i32 %66 to i64
  %68 = getelementptr inbounds %struct._Bucket, ptr %65, i64 %67, i32 0, i32 1
  %69 = load i8, ptr %68, align 8
  %70 = icmp eq i8 %69, 0
  br i1 %70, label %.preheader, label %.critedge

.critedge:                                        ; preds = %.preheader, %64
  %71 = getelementptr inbounds i8, ptr %0, i64 36
  %72 = load i32, ptr %71, align 4
  %. = tail call i32 @llvm.umin.i32(i32 %72, i32 %63)
  store i32 %., ptr %71, align 4
  %73 = getelementptr inbounds i8, ptr %0, i64 10
  %74 = load i8, ptr %73, align 2
  %.not96 = icmp eq i8 %74, 0
  br i1 %.not96, label %.loopexit, label %75

75:                                               ; preds = %.critedge
  %76 = load ptr, ptr getelementptr inbounds (%struct._zend_executor_globals, ptr @executor_globals, i64 0, i32 60), align 8
  %77 = load i32, ptr getelementptr inbounds (%struct._zend_executor_globals, ptr @executor_globals, i64 0, i32 59), align 4
  %78 = zext i32 %77 to i64
  %79 = getelementptr inbounds %struct._HashTableIterator, ptr %76, i64 %78
  %.not97102 = icmp eq i32 %77, 0
  br i1 %.not97102, label %.loopexit, label %.lr.ph

.lr.ph:                                           ; preds = %75, %85
  %.0103 = phi ptr [ %86, %85 ], [ %76, %75 ]
  %80 = load ptr, ptr %.0103, align 8
  %81 = icmp eq ptr %80, %0
  br i1 %81, label %82, label %85

82:                                               ; preds = %.lr.ph
  %83 = getelementptr inbounds i8, ptr %.0103, i64 8
  %84 = load i32, ptr %83, align 8
  %.99 = tail call i32 @llvm.umin.i32(i32 %84, i32 %63)
  store i32 %.99, ptr %83, align 8
  br label %85

85:                                               ; preds = %82, %.lr.ph
  %86 = getelementptr inbounds i8, ptr %.0103, i64 16
  %.not97 = icmp eq ptr %86, %79
  br i1 %.not97, label %.loopexit, label %.lr.ph

.loopexit:                                        ; preds = %85, %75, %.critedge, %54
  %87 = getelementptr inbounds i8, ptr %0, i64 48
  %88 = load ptr, ptr %87, align 8
  %.not98 = icmp eq ptr %88, null
  br i1 %.not98, label %95, label %89

89:                                               ; preds = %.loopexit
  %90 = load ptr, ptr %1, align 8
  %91 = getelementptr inbounds i8, ptr %1, i64 8
  %92 = load i32, ptr %91, align 8
  store ptr %90, ptr %3, align 8
  %93 = getelementptr inbounds i8, ptr %3, i64 8
  store i32 %92, ptr %93, align 8
  store i32 0, ptr %91, align 8
  %94 = load ptr, ptr %87, align 8
  call void %94(ptr noundef nonnull %3) #27
  br label %97

95:                                               ; preds = %.loopexit
  %96 = getelementptr inbounds i8, ptr %1, i64 8
  store i32 0, ptr %96, align 8
  br label %97

97:                                               ; preds = %95, %89
  ret void
}